; Function Attrs: nounwind uwtable
define ptr @l_Int_add__of__le___boxed(ptr noundef %0, ptr noundef %1, ptr noundef readnone captures(none) %2) local_unnamed_addr #0 {
  %4 = ptrtoint ptr %1 to i64
  %5 = and i64 %4, 1
  %.not.i5.i = icmp eq i64 %5, 0
  br i1 %.not.i5.i, label %.critedge.i.i, label %6, !prof !4

6:                                                ; preds = %3
  %7 = ptrtoint ptr %0 to i64
  %8 = and i64 %7, 1
  %.not7.i.i = icmp eq i64 %8, 0
  br i1 %.not7.i.i, label %.critedge.i.i, label %9, !prof !4

9:                                                ; preds = %6
  %10 = shl i64 %4, 31
  %11 = ashr i64 %10, 32
  %12 = shl i64 %7, 31
  %13 = ashr i64 %12, 32
  %14 = sub nsw i64 %11, %13
  %15 = add nsw i64 %14, 2147483648
  %16 = icmp ult i64 %15, 4294967296
  br i1 %16, label %17, label %22, !prof !5

17:                                               ; preds = %9
  %18 = shl nsw i64 %14, 1
  %19 = and i64 %18, 8589934590
  %20 = or disjoint i64 %19, 1
  %21 = inttoptr i64 %20 to ptr
  br label %lean_int_sub.exit.i

22:                                               ; preds = %9
  %23 = tail call ptr @lean_big_int64_to_int(i64 noundef range(i64 -4611686016279904256, -9223372036854775808) %14) #4
  br label %lean_int_sub.exit.i

.critedge.i.i:                                    ; preds = %6, %3
  %24 = tail call ptr @lean_int_big_sub(ptr noundef %1, ptr noundef %0) #4
  br label %lean_int_sub.exit.i

lean_int_sub.exit.i:                              ; preds = %.critedge.i.i, %22, %17
  %.0.i.i = phi ptr [ %24, %.critedge.i.i ], [ %21, %17 ], [ %23, %22 ]
  %25 = tail call ptr @l_Int_toNat(ptr noundef %.0.i.i) #4
  %26 = ptrtoint ptr %.0.i.i to i64
  %27 = and i64 %26, 1
  %.not.i9 = icmp eq i64 %27, 0
  br i1 %.not.i9, label %28, label %l_Int_add__of__le.exit

28:                                               ; preds = %lean_int_sub.exit.i
  %29 = load i32, ptr %.0.i.i, align 4, !tbaa !6
  %30 = icmp sgt i32 %29, 1
  br i1 %30, label %31, label %33, !prof !5

31:                                               ; preds = %28
  %32 = add nsw i32 %29, -1
  store i32 %32, ptr %.0.i.i, align 4, !tbaa !6
  br label %l_Int_add__of__le.exit

33:                                               ; preds = %28
  %.not.i.i = icmp eq i32 %29, 0
  br i1 %.not.i.i, label %l_Int_add__of__le.exit, label %34

34:                                               ; preds = %33
  tail call void @lean_dec_ref_cold(ptr noundef nonnull %.0.i.i) #4
  br label %l_Int_add__of__le.exit

l_Int_add__of__le.exit:                           ; preds = %lean_int_sub.exit.i, %31, %33, %34
  br i1 %.not.i5.i, label %35, label %lean_dec.exit6

35:                                               ; preds = %l_Int_add__of__le.exit
  %36 = load i32, ptr %1, align 4, !tbaa !6
  %37 = icmp sgt i32 %36, 1
  br i1 %37, label %38, label %40, !prof !5

38:                                               ; preds = %35
  %39 = add nsw i32 %36, -1
  store i32 %39, ptr %1, align 4, !tbaa !6
  br label %lean_dec.exit6

40:                                               ; preds = %35
  %.not.i = icmp eq i32 %36, 0
  br i1 %.not.i, label %lean_dec.exit6, label %41

41:                                               ; preds = %40
  tail call void @lean_dec_ref_cold(ptr noundef nonnull %1) #4
  br label %lean_dec.exit6

lean_dec.exit6:                                   ; preds = %41, %40, %38, %l_Int_add__of__le.exit
  %42 = ptrtoint ptr %0 to i64
  %43 = and i64 %42, 1
  %.not10 = icmp eq i64 %43, 0
  br i1 %.not10, label %44, label %lean_dec.exit

44:                                               ; preds = %lean_dec.exit6
  %45 = load i32, ptr %0, align 4, !tbaa !6
  %46 = icmp sgt i32 %45, 1
  br i1 %46, label %47, label %49, !prof !5

47:                                               ; preds = %44
  %48 = add nsw i32 %45, -1
  store i32 %48, ptr %0, align 4, !tbaa !6
  br label %lean_dec.exit

49:                                               ; preds = %44
  %.not.i7 = icmp eq i32 %45, 0
  br i1 %.not.i7, label %lean_dec.exit, label %50

50:                                               ; preds = %49
  tail call void @lean_dec_ref_cold(ptr noundef nonnull %0) #4
  br label %lean_dec.exit

lean_dec.exit:                                    ; preds = %50, %49, %47, %lean_dec.exit6
  ret ptr %25
}